target datalayout = "e-m:e-p270:32:32-p271:32:32-p272:64:64-i64:64-i128:128-f80:128-n8:16:32:64-S128"
target triple = "x86_64-pc-linux-gnu"

%struct.lstopo_color_palette = type { %struct.lstopo_color, %struct.lstopo_color, %struct.lstopo_color, %struct.lstopo_color, %struct.lstopo_color, %struct.lstopo_color, %struct.lstopo_color, %struct.lstopo_color, %struct.lstopo_color, %struct.lstopo_color, %struct.lstopo_color, %struct.lstopo_color, %struct.lstopo_color, %struct.lstopo_color, %struct.lstopo_color, %struct.lstopo_color, %struct.lstopo_color, %struct.lstopo_color, %struct.lstopo_color }
%struct.lstopo_color = type { i32, i32, i32, i32, %union.lstopo_color_private_u, ptr }
%union.lstopo_color_private_u = type { %struct.lstopo_color_private_ascii_s }
%struct.lstopo_color_private_ascii_s = type { i32 }
%struct.lstopo_output = type { ptr, i32, i32, i32, ptr, i32, i32, i32, i32, i32, i32, i32, i32, ptr, ptr, i32, i32, i64, i64, i64, i32, [3 x [128 x i8]], i32, i32, ptr, i32, i32, i32, i32, i32, i32, %struct.hwloc_calc_level, i32, i32, i32, i64, [256 x i8], i32, i32, i32, i32, i32, float, [20 x i32], i32, i32, i32, [20 x i32], i32, [20 x i32], i32, [20 x i32], i32, i32, i32, i32, ptr, ptr, i32, [20 x i32], [20 x i32], [20 x i32], ptr, ptr, i64, ptr, i32, i32, i32 }
%struct.hwloc_calc_level = type { i32, i32, %union.hwloc_obj_attr_u, [32 x i8], i32, i32, i32, i32 }
%union.hwloc_obj_attr_u = type { %struct.hwloc_numanode_attr_s, [24 x i8] }
%struct.hwloc_numanode_attr_s = type { i64, i32, ptr }

@lstopo_main_palette = hidden global %struct.lstopo_color_palette zeroinitializer, align 8
@lstopo_grey_palette = hidden global %struct.lstopo_color_palette zeroinitializer, align 8
@lstopo_white_palette = hidden global %struct.lstopo_color_palette zeroinitializer, align 8
@.str = private unnamed_addr constant [5 x i8] c"grey\00", align 1
@.str.1 = private unnamed_addr constant [10 x i8] c"greyscale\00", align 1
@.str.2 = private unnamed_addr constant [7 x i8] c"colors\00", align 1
@.str.3 = private unnamed_addr constant [8 x i8] c"default\00", align 1
@.str.4 = private unnamed_addr constant [6 x i8] c"white\00", align 1
@.str.5 = private unnamed_addr constant [5 x i8] c"none\00", align 1
@stderr = external global ptr, align 8
@.str.6 = private unnamed_addr constant [42 x i8] c"Unrecognized palette name `%s', ignoring\0A\00", align 1

; Function Attrs: nounwind uwtable
define hidden void @lstopo_palette_select(ptr noundef %0, ptr noundef %1) #0 {
  %3 = alloca ptr, align 8
  %4 = alloca ptr, align 8
  store ptr %0, ptr %3, align 8, !tbaa !4
  store ptr %1, ptr %4, align 8, !tbaa !33
  %5 = load ptr, ptr %4, align 8, !tbaa !33
  %6 = call i32 @strcmp(ptr noundef %5, ptr noundef @.str) #11
  %7 = icmp ne i32 %6, 0
  br i1 %7, label %8, label %12

8:                                                ; preds = %2
  %9 = load ptr, ptr %4, align 8, !tbaa !33
  %10 = call i32 @strcmp(ptr noundef %9, ptr noundef @.str.1) #11
  %11 = icmp ne i32 %10, 0
  br i1 %11, label %15, label %12

12:                                               ; preds = %8, %2
  %13 = load ptr, ptr %3, align 8, !tbaa !4
  %14 = getelementptr inbounds nuw %struct.lstopo_output, ptr %13, i32 0, i32 62
  store ptr @lstopo_grey_palette, ptr %14, align 8, !tbaa !21
  br label %43

15:                                               ; preds = %8
  %16 = load ptr, ptr %4, align 8, !tbaa !33
  %17 = call i32 @strcmp(ptr noundef %16, ptr noundef @.str.2) #11
  %18 = icmp ne i32 %17, 0
  br i1 %18, label %19, label %23

19:                                               ; preds = %15
  %20 = load ptr, ptr %4, align 8, !tbaa !33
  %21 = call i32 @strcmp(ptr noundef %20, ptr noundef @.str.3) #11
  %22 = icmp ne i32 %21, 0
  br i1 %22, label %26, label %23

23:                                               ; preds = %19, %15
  %24 = load ptr, ptr %3, align 8, !tbaa !4
  %25 = getelementptr inbounds nuw %struct.lstopo_output, ptr %24, i32 0, i32 62
  store ptr @lstopo_main_palette, ptr %25, align 8, !tbaa !21
  br label %42

26:                                               ; preds = %19
  %27 = load ptr, ptr %4, align 8, !tbaa !33
  %28 = call i32 @strcmp(ptr noundef %27, ptr noundef @.str.4) #11
  %29 = icmp ne i32 %28, 0
  br i1 %29, label %30, label %34

30:                                               ; preds = %26
  %31 = load ptr, ptr %4, align 8, !tbaa !33
  %32 = call i32 @strcmp(ptr noundef %31, ptr noundef @.str.5) #11
  %33 = icmp ne i32 %32, 0
  br i1 %33, label %37, label %34

34:                                               ; preds = %30, %26
  %35 = load ptr, ptr %3, align 8, !tbaa !4
  %36 = getelementptr inbounds nuw %struct.lstopo_output, ptr %35, i32 0, i32 62
  store ptr @lstopo_white_palette, ptr %36, align 8, !tbaa !21
  br label %41

37:                                               ; preds = %30
  %38 = load ptr, ptr @stderr, align 8, !tbaa !34
  %39 = load ptr, ptr %4, align 8, !tbaa !33
  %40 = call i32 (ptr, ptr, ...) @fprintf(ptr noundef %38, ptr noundef @.str.6, ptr noundef %39) #12
  br label %41

41:                                               ; preds = %37, %34
  br label %42

42:                                               ; preds = %41, %23
  br label %43

43:                                               ; preds = %42, %12
  ret void
}