; Function Attrs: nofree nounwind uwtable
define hidden void @lstopo_palette_select(ptr noundef writeonly captures(none) %0, ptr noundef %1) local_unnamed_addr #3 {
  %3 = tail call i32 @strcmp(ptr noundef nonnull dereferenceable(1) %1, ptr noundef nonnull dereferenceable(5) @.str) #24
  %.not = icmp eq i32 %3, 0
  br i1 %.not, label %6, label %4

4:                                                ; preds = %2
  %5 = tail call i32 @strcmp(ptr noundef nonnull dereferenceable(1) %1, ptr noundef nonnull dereferenceable(10) @.str.1) #24
  %.not10 = icmp eq i32 %5, 0
  br i1 %.not10, label %6, label %8

6:                                                ; preds = %4, %2
  %7 = getelementptr inbounds nuw i8, ptr %0, i64 1576
  store ptr @lstopo_grey_palette, ptr %7, align 8, !tbaa !8
  br label %23

8:                                                ; preds = %4
  %9 = tail call i32 @strcmp(ptr noundef nonnull dereferenceable(1) %1, ptr noundef nonnull dereferenceable(7) @.str.2) #24
  %.not11 = icmp eq i32 %9, 0
  br i1 %.not11, label %12, label %10

10:                                               ; preds = %8
  %11 = tail call i32 @strcmp(ptr noundef nonnull dereferenceable(1) %1, ptr noundef nonnull dereferenceable(8) @.str.3) #24
  %.not12 = icmp eq i32 %11, 0
  br i1 %.not12, label %12, label %14

12:                                               ; preds = %10, %8
  %13 = getelementptr inbounds nuw i8, ptr %0, i64 1576
  store ptr @lstopo_main_palette, ptr %13, align 8, !tbaa !8
  br label %23

14:                                               ; preds = %10
  %15 = tail call i32 @strcmp(ptr noundef nonnull dereferenceable(1) %1, ptr noundef nonnull dereferenceable(6) @.str.4) #24
  %.not13 = icmp eq i32 %15, 0
  br i1 %.not13, label %18, label %16

16:                                               ; preds = %14
  %17 = tail call i32 @strcmp(ptr noundef nonnull dereferenceable(1) %1, ptr noundef nonnull dereferenceable(5) @.str.5) #24
  %.not14 = icmp eq i32 %17, 0
  br i1 %.not14, label %18, label %20

18:                                               ; preds = %16, %14
  %19 = getelementptr inbounds nuw i8, ptr %0, i64 1576
  store ptr @lstopo_white_palette, ptr %19, align 8, !tbaa !8
  br label %23

20:                                               ; preds = %16
  %21 = load ptr, ptr @stderr, align 8, !tbaa !21
  %22 = tail call i32 (ptr, ptr, ...) @fprintf(ptr noundef %21, ptr noundef nonnull @.str.6, ptr noundef nonnull %1) #25
  br label %23

23:                                               ; preds = %12, %20, %18, %6
  ret void
}